target datalayout = "e-m:e-p270:32:32-p271:32:32-p272:64:64-i64:64-i128:128-f80:128-n8:16:32:64-S128"
target triple = "x86_64-pc-linux-gnu"

; Function Attrs: nounwind uwtable
define i32 @H5P__encode_double(ptr noundef %0, ptr noundef %1, ptr noundef %2) #0 {
  %4 = alloca ptr, align 8
  %5 = alloca ptr, align 8
  %6 = alloca ptr, align 8
  %7 = alloca ptr, align 8
  %8 = alloca i64, align 8
  %9 = alloca i64, align 8
  %10 = alloca ptr, align 8
  store ptr %0, ptr %4, align 8
  store ptr %1, ptr %5, align 8
  store ptr %2, ptr %6, align 8
  %11 = load ptr, ptr %5, align 8
  store ptr %11, ptr %7, align 8
  %12 = load ptr, ptr %7, align 8
  %13 = load ptr, ptr %12, align 8
  %14 = icmp ne ptr null, %13
  br i1 %14, label %15, label %43

15:                                               ; preds = %3
  %16 = load ptr, ptr %7, align 8
  %17 = load ptr, ptr %16, align 8
  %18 = getelementptr inbounds i8, ptr %17, i32 1
  store ptr %18, ptr %16, align 8
  store i8 8, ptr %17, align 1
  br label %19

19:                                               ; preds = %15
  %20 = load ptr, ptr %7, align 8
  %21 = load ptr, ptr %20, align 8
  store ptr %21, ptr %10, align 8
  %22 = load ptr, ptr %4, align 8
  call void @llvm.memcpy.p0.p0.i64(ptr align 8 %8, ptr align 8 %22, i64 8, i1 false)
  store i64 0, ptr %9, align 8
  br label %23

23:                                               ; preds = %32, %19
  %24 = load i64, ptr %9, align 8
  %25 = icmp ult i64 %24, 8
  br i1 %25, label %26, label %37

26:                                               ; preds = %23
  %27 = load i64, ptr %8, align 8
  %28 = and i64 %27, 255
  %29 = trunc i64 %28 to i8
  %30 = load ptr, ptr %10, align 8
  %31 = getelementptr inbounds i8, ptr %30, i32 1
  store ptr %31, ptr %10, align 8
  store i8 %29, ptr %30, align 1
  br label %32

32:                                               ; preds = %26
  %33 = load i64, ptr %9, align 8
  %34 = add i64 %33, 1
  store i64 %34, ptr %9, align 8
  %35 = load i64, ptr %8, align 8
  %36 = lshr i64 %35, 8
  store i64 %36, ptr %8, align 8
  br label %23

37:                                               ; preds = %23
  %38 = load ptr, ptr %7, align 8
  %39 = load ptr, ptr %38, align 8
  %40 = getelementptr inbounds i8, ptr %39, i64 8
  %41 = load ptr, ptr %7, align 8
  store ptr %40, ptr %41, align 8
  br label %42

42:                                               ; preds = %37
  br label %43

43:                                               ; preds = %42, %3
  %44 = load ptr, ptr %6, align 8
  %45 = load i64, ptr %44, align 8
  %46 = add i64 %45, 9
  store i64 %46, ptr %44, align 8
  ret i32 0
}