; Function Attrs: nofree norecurse nosync nounwind memory(write, argmem: readwrite, inaccessiblemem: none) uwtable
define noundef i32 @H5P__encode_double(ptr noundef readonly captures(none) %0, ptr noundef captures(none) %1, ptr noundef captures(none) %2) local_unnamed_addr #0 {
  %4 = load ptr, ptr %1, align 8
  %.not = icmp eq ptr %4, null
  br i1 %.not, label %16, label %5

5:                                                ; preds = %3
  %6 = getelementptr inbounds nuw i8, ptr %4, i64 1
  store ptr %6, ptr %1, align 8
  store i8 8, ptr %4, align 1
  %7 = load ptr, ptr %1, align 8
  %.0.copyload = load i64, ptr %0, align 8
  br label %8

8:                                                ; preds = %5, %8
  %.017 = phi ptr [ %7, %5 ], [ %10, %8 ]
  %.01216 = phi i64 [ 0, %5 ], [ %11, %8 ]
  %.01315 = phi i64 [ %.0.copyload, %5 ], [ %12, %8 ]
  %9 = trunc i64 %.01315 to i8
  %10 = getelementptr inbounds nuw i8, ptr %.017, i64 1
  store i8 %9, ptr %.017, align 1
  %11 = add nuw nsw i64 %.01216, 1
  %12 = lshr i64 %.01315, 8
  %exitcond.not = icmp eq i64 %11, 8
  br i1 %exitcond.not, label %13, label %8

13:                                               ; preds = %8
  %14 = load ptr, ptr %1, align 8
  %15 = getelementptr inbounds nuw i8, ptr %14, i64 8
  store ptr %15, ptr %1, align 8
  br label %16

16:                                               ; preds = %13, %3
  %17 = load i64, ptr %2, align 8
  %18 = add i64 %17, 9
  store i64 %18, ptr %2, align 8
  ret i32 0
}